target datalayout = "e-m:e-p270:32:32-p271:32:32-p272:64:64-i64:64-i128:128-f80:128-n8:16:32:64-S128"
target triple = "x86_64-unknown-linux-gnu"

%"class.google::protobuf::io::ZeroCopyInputStream" = type { ptr }
%"class.google::protobuf::io::LimitingInputStream" = type { %"class.google::protobuf::io::ZeroCopyInputStream", ptr, i64, i64 }

; Function Attrs: mustprogress uwtable
define noundef zeroext i1 @_ZN6google8protobuf2io19LimitingInputStream4NextEPPKvPi(ptr noundef nonnull align 8 dereferenceable(32) %this, ptr noundef %data, ptr noundef %size) unnamed_addr #5 align 2 {
entry:
  %retval = alloca i1, align 1
  %this.addr = alloca ptr, align 8
  %data.addr = alloca ptr, align 8
  %size.addr = alloca ptr, align 8
  store ptr %this, ptr %this.addr, align 8
  store ptr %data, ptr %data.addr, align 8
  store ptr %size, ptr %size.addr, align 8
  %this1 = load ptr, ptr %this.addr, align 8
  %limit_ = getelementptr inbounds %"class.google::protobuf::io::LimitingInputStream", ptr %this1, i32 0, i32 2
  %0 = load i64, ptr %limit_, align 8
  %cmp = icmp sle i64 %0, 0
  br i1 %cmp, label %if.then, label %if.end

if.then:                                          ; preds = %entry
  store i1 false, ptr %retval, align 1
  br label %return

if.end:                                           ; preds = %entry
  %input_ = getelementptr inbounds %"class.google::protobuf::io::LimitingInputStream", ptr %this1, i32 0, i32 1
  %1 = load ptr, ptr %input_, align 8
  %2 = load ptr, ptr %data.addr, align 8
  %3 = load ptr, ptr %size.addr, align 8
  %vtable = load ptr, ptr %1, align 8
  %vfn = getelementptr inbounds ptr, ptr %vtable, i64 2
  %4 = load ptr, ptr %vfn, align 8
  %call = call noundef zeroext i1 %4(ptr noundef nonnull align 8 dereferenceable(8) %1, ptr noundef %2, ptr noundef %3)
  br i1 %call, label %if.end3, label %if.then2

if.then2:                                         ; preds = %if.end
  store i1 false, ptr %retval, align 1
  br label %return

if.end3:                                          ; preds = %if.end
  %5 = load ptr, ptr %size.addr, align 8
  %6 = load i32, ptr %5, align 4
  %conv = sext i32 %6 to i64
  %limit_4 = getelementptr inbounds %"class.google::protobuf::io::LimitingInputStream", ptr %this1, i32 0, i32 2
  %7 = load i64, ptr %limit_4, align 8
  %sub = sub nsw i64 %7, %conv
  store i64 %sub, ptr %limit_4, align 8
  %limit_5 = getelementptr inbounds %"class.google::protobuf::io::LimitingInputStream", ptr %this1, i32 0, i32 2
  %8 = load i64, ptr %limit_5, align 8
  %cmp6 = icmp slt i64 %8, 0
  br i1 %cmp6, label %if.then7, label %if.end11

if.then7:                                         ; preds = %if.end3
  %limit_8 = getelementptr inbounds %"class.google::protobuf::io::LimitingInputStream", ptr %this1, i32 0, i32 2
  %9 = load i64, ptr %limit_8, align 8
  %10 = load ptr, ptr %size.addr, align 8
  %11 = load i32, ptr %10, align 4
  %conv9 = sext i32 %11 to i64
  %add = add nsw i64 %conv9, %9
  %conv10 = trunc i64 %add to i32
  store i32 %conv10, ptr %10, align 4
  br label %if.end11

if.end11:                                         ; preds = %if.then7, %if.end3
  store i1 true, ptr %retval, align 1
  br label %return

return:                                           ; preds = %if.end11, %if.then2, %if.then
  %12 = load i1, ptr %retval, align 1
  ret i1 %12
}