; Function Attrs: mustprogress uwtable
define noundef zeroext i1 @_ZN6google8protobuf2io19LimitingInputStream4NextEPPKvPi(ptr nocapture noundef nonnull align 8 dereferenceable(32) %this, ptr noundef %data, ptr noundef %size) unnamed_addr #5 align 2 {
entry:
  %limit_ = getelementptr inbounds i8, ptr %this, i64 16
  %0 = load i64, ptr %limit_, align 8
  %cmp = icmp slt i64 %0, 1
  br i1 %cmp, label %return, label %if.end

if.end:                                           ; preds = %entry
  %input_ = getelementptr inbounds i8, ptr %this, i64 8
  %1 = load ptr, ptr %input_, align 8
  %vtable = load ptr, ptr %1, align 8
  %vfn = getelementptr inbounds i8, ptr %vtable, i64 16
  %2 = load ptr, ptr %vfn, align 8
  %call = tail call noundef zeroext i1 %2(ptr noundef nonnull align 8 dereferenceable(8) %1, ptr noundef %data, ptr noundef %size)
  br i1 %call, label %if.end3, label %return

if.end3:                                          ; preds = %if.end
  %3 = load i32, ptr %size, align 4
  %conv = sext i32 %3 to i64
  %4 = load i64, ptr %limit_, align 8
  %sub = sub nsw i64 %4, %conv
  store i64 %sub, ptr %limit_, align 8
  %cmp6 = icmp slt i64 %sub, 0
  br i1 %cmp6, label %if.then7, label %return

if.then7:                                         ; preds = %if.end3
  %5 = load i32, ptr %size, align 4
  %6 = trunc i64 %sub to i32
  %conv10 = add i32 %5, %6
  store i32 %conv10, ptr %size, align 4
  br label %return

return:                                           ; preds = %if.end3, %if.then7, %if.end, %entry
  %retval.0 = phi i1 [ false, %entry ], [ false, %if.end ], [ true, %if.then7 ], [ true, %if.end3 ]
  ret i1 %retval.0
}